target datalayout = "e-m:e-p270:32:32-p271:32:32-p272:64:64-i64:64-i128:128-f80:128-n8:16:32:64-S128"
target triple = "x86_64-pc-linux-gnu"

%struct.pmix_output_stream_t = type { %struct.pmix_object_t, i32, i32, ptr, ptr, ptr, i8, i8, i8, i8, i8, i8, ptr }
%struct.pmix_object_t = type { %union.pthread_mutex_t, ptr, i32, %struct.pmix_tma }
%union.pthread_mutex_t = type { %struct.__pthread_mutex_s }
%struct.__pthread_mutex_s = type { i32, i32, i32, i32, i32, i16, i16, %struct.__pthread_internal_list }
%struct.__pthread_internal_list = type { ptr, ptr }
%struct.pmix_tma = type { ptr, ptr, ptr, ptr, ptr, ptr, ptr, ptr }
%struct.pmix_output_desc_t = type { i8, i8, i32, i8, i32, ptr, ptr, i32, ptr, i32, i8, i8, i8, i8, ptr, i32, i32 }

@pmix_output_redirected_to_syslog = global i8 0, align 1
@initialized = internal global i8 0, align 1
@.str.2 = private unnamed_addr constant [21 x i8] c"PMIX_OUTPUT_REDIRECT\00", align 1
@verbose = internal global %struct.pmix_output_stream_t zeroinitializer, align 8
@pmix_output_info = global [64 x %struct.pmix_output_desc_t] zeroinitializer, align 16
@.str.19 = private unnamed_addr constant [5 x i8] c"file\00", align 1
@.str.20 = private unnamed_addr constant [19 x i8] c"PMIX_OUTPUT_SUFFIX\00", align 1

; Function Attrs: nounwind uwtable
define internal i32 @do_open(i32 noundef %0, ptr noundef %1) #0 {
  %3 = alloca i32, align 4
  %4 = alloca i32, align 4
  %5 = alloca ptr, align 8
  %6 = alloca i32, align 4
  %7 = alloca i8, align 1
  %8 = alloca ptr, align 8
  %9 = alloca ptr, align 8
  %10 = alloca i32, align 4
  store i32 %0, ptr %4, align 4, !tbaa !33
  store ptr %1, ptr %5, align 8, !tbaa !8
  call void @llvm.lifetime.start.p0(i64 4, ptr %6) #12
  call void @llvm.lifetime.start.p0(i64 1, ptr %7) #12
  store i8 0, ptr %7, align 1, !tbaa !29
  call void @llvm.lifetime.start.p0(i64 8, ptr %8) #12
  call void @llvm.lifetime.start.p0(i64 8, ptr %9) #12
  %11 = load i8, ptr @initialized, align 1, !tbaa !29, !range !30, !noundef !31
  %12 = trunc i8 %11 to i1
  br i1 %12, label %15, label %13

13:                                               ; preds = %2
  %14 = call zeroext i1 @pmix_output_init()
  br label %15

15:                                               ; preds = %13, %2
  %16 = call ptr @getenv(ptr noundef @.str.2) #12
  store ptr %16, ptr %8, align 8, !tbaa !32
  %17 = load ptr, ptr %8, align 8, !tbaa !32
  %18 = icmp ne ptr null, %17
  br i1 %18, label %19, label %24

19:                                               ; preds = %15
  %20 = load ptr, ptr %8, align 8, !tbaa !32
  %21 = call i32 @strcasecmp(ptr noundef %20, ptr noundef @.str.19) #13
  %22 = icmp eq i32 0, %21
  br i1 %22, label %23, label %24

23:                                               ; preds = %19
  store i8 1, ptr %7, align 1, !tbaa !29
  br label %24

24:                                               ; preds = %23, %19, %15
  %25 = call ptr @getenv(ptr noundef @.str.20) #12
  store ptr %25, ptr %9, align 8, !tbaa !32
  %26 = load i32, ptr %4, align 4, !tbaa !33
  %27 = icmp eq i32 -1, %26
  br i1 %27, label %28, label %49

28:                                               ; preds = %24
  store i32 0, ptr %6, align 4, !tbaa !33
  br label %29

29:                                               ; preds = %41, %28
  %30 = load i32, ptr %6, align 4, !tbaa !33
  %31 = icmp slt i32 %30, 64
  br i1 %31, label %32, label %44

32:                                               ; preds = %29
  %33 = load i32, ptr %6, align 4, !tbaa !33
  %34 = sext i32 %33 to i64
  %35 = getelementptr inbounds [64 x %struct.pmix_output_desc_t], ptr @pmix_output_info, i64 0, i64 %34
  %36 = getelementptr inbounds nuw %struct.pmix_output_desc_t, ptr %35, i32 0, i32 0
  %37 = load i8, ptr %36, align 8, !tbaa !40, !range !30, !noundef !31
  %38 = trunc i8 %37 to i1
  br i1 %38, label %40, label %39

39:                                               ; preds = %32
  br label %44

40:                                               ; preds = %32
  br label %41

41:                                               ; preds = %40
  %42 = load i32, ptr %6, align 4, !tbaa !33
  %43 = add nsw i32 %42, 1
  store i32 %43, ptr %6, align 4, !tbaa !33
  br label %29, !llvm.loop !65

44:                                               ; preds = %39, %29
  %45 = load i32, ptr %6, align 4, !tbaa !33
  %46 = icmp sge i32 %45, 64
  br i1 %46, label %47, label %48

47:                                               ; preds = %44
  store i32 -29, ptr %3, align 4
  store i32 1, ptr %10, align 4
  br label %260

48:                                               ; preds = %44
  br label %52

49:                                               ; preds = %24
  %50 = load i32, ptr %4, align 4, !tbaa !33
  call void @free_descriptor(i32 noundef %50)
  %51 = load i32, ptr %4, align 4, !tbaa !33
  store i32 %51, ptr %6, align 4, !tbaa !33
  br label %52

52:                                               ; preds = %49, %48
  %53 = load ptr, ptr %5, align 8, !tbaa !8
  %54 = icmp eq ptr null, %53
  br i1 %54, label %55, label %56

55:                                               ; preds = %52
  store ptr @verbose, ptr %5, align 8, !tbaa !8
  br label %56

56:                                               ; preds = %55, %52
  %57 = load i32, ptr %6, align 4, !tbaa !33
  %58 = sext i32 %57 to i64
  %59 = getelementptr inbounds [64 x %struct.pmix_output_desc_t], ptr @pmix_output_info, i64 0, i64 %58
  %60 = getelementptr inbounds nuw %struct.pmix_output_desc_t, ptr %59, i32 0, i32 0
  store i8 1, ptr %60, align 8, !tbaa !40
  %61 = load ptr, ptr %5, align 8, !tbaa !8
  %62 = getelementptr inbounds nuw %struct.pmix_output_stream_t, ptr %61, i32 0, i32 6
  %63 = load i8, ptr %62, align 8, !tbaa !22, !range !30, !noundef !31
  %64 = trunc i8 %63 to i1
  %65 = select i1 %64, i32 0, i32 1
  %66 = icmp ne i32 %65, 0
  %67 = load i32, ptr %6, align 4, !tbaa !33
  %68 = sext i32 %67 to i64
  %69 = getelementptr inbounds [64 x %struct.pmix_output_desc_t], ptr @pmix_output_info, i64 0, i64 %68
  %70 = getelementptr inbounds nuw %struct.pmix_output_desc_t, ptr %69, i32 0, i32 1
  %71 = zext i1 %66 to i8
  store i8 %71, ptr %70, align 1, !tbaa !42
  %72 = load ptr, ptr %5, align 8, !tbaa !8
  %73 = getelementptr inbounds nuw %struct.pmix_output_stream_t, ptr %72, i32 0, i32 1
  %74 = load i32, ptr %73, align 8, !tbaa !10
  %75 = load i32, ptr %6, align 4, !tbaa !33
  %76 = sext i32 %75 to i64
  %77 = getelementptr inbounds [64 x %struct.pmix_output_desc_t], ptr @pmix_output_info, i64 0, i64 %76
  %78 = getelementptr inbounds nuw %struct.pmix_output_desc_t, ptr %77, i32 0, i32 2
  store i32 %74, ptr %78, align 4, !tbaa !66
  %79 = load i32, ptr %6, align 4, !tbaa !33
  %80 = sext i32 %79 to i64
  %81 = getelementptr inbounds [64 x %struct.pmix_output_desc_t], ptr @pmix_output_info, i64 0, i64 %80
  %82 = getelementptr inbounds nuw %struct.pmix_output_desc_t, ptr %81, i32 0, i32 3
  store i8 0, ptr %82, align 8, !tbaa !43
  %83 = load ptr, ptr %5, align 8, !tbaa !8
  %84 = getelementptr inbounds nuw %struct.pmix_output_stream_t, ptr %83, i32 0, i32 4
  %85 = load ptr, ptr %84, align 8, !tbaa !20
  %86 = icmp ne ptr null, %85
  br i1 %86, label %87, label %105

87:                                               ; preds = %56
  %88 = load ptr, ptr %5, align 8, !tbaa !8
  %89 = getelementptr inbounds nuw %struct.pmix_output_stream_t, ptr %88, i32 0, i32 4
  %90 = load ptr, ptr %89, align 8, !tbaa !20
  %91 = call noalias ptr @strdup(ptr noundef %90) #12
  %92 = load i32, ptr %6, align 4, !tbaa !33
  %93 = sext i32 %92 to i64
  %94 = getelementptr inbounds [64 x %struct.pmix_output_desc_t], ptr @pmix_output_info, i64 0, i64 %93
  %95 = getelementptr inbounds nuw %struct.pmix_output_desc_t, ptr %94, i32 0, i32 6
  store ptr %91, ptr %95, align 8, !tbaa !67
  %96 = load ptr, ptr %5, align 8, !tbaa !8
  %97 = getelementptr inbounds nuw %struct.pmix_output_stream_t, ptr %96, i32 0, i32 4
  %98 = load ptr, ptr %97, align 8, !tbaa !20
  %99 = call i64 @strlen(ptr noundef %98) #13
  %100 = trunc i64 %99 to i32
  %101 = load i32, ptr %6, align 4, !tbaa !33
  %102 = sext i32 %101 to i64
  %103 = getelementptr inbounds [64 x %struct.pmix_output_desc_t], ptr @pmix_output_info, i64 0, i64 %102
  %104 = getelementptr inbounds nuw %struct.pmix_output_desc_t, ptr %103, i32 0, i32 7
  store i32 %100, ptr %104, align 8, !tbaa !68
  br label %114

105:                                              ; preds = %56
  %106 = load i32, ptr %6, align 4, !tbaa !33
  %107 = sext i32 %106 to i64
  %108 = getelementptr inbounds [64 x %struct.pmix_output_desc_t], ptr @pmix_output_info, i64 0, i64 %107
  %109 = getelementptr inbounds nuw %struct.pmix_output_desc_t, ptr %108, i32 0, i32 6
  store ptr null, ptr %109, align 8, !tbaa !67
  %110 = load i32, ptr %6, align 4, !tbaa !33
  %111 = sext i32 %110 to i64
  %112 = getelementptr inbounds [64 x %struct.pmix_output_desc_t], ptr @pmix_output_info, i64 0, i64 %111
  %113 = getelementptr inbounds nuw %struct.pmix_output_desc_t, ptr %112, i32 0, i32 7
  store i32 0, ptr %113, align 8, !tbaa !68
  br label %114

114:                                              ; preds = %105, %87
  %115 = load ptr, ptr %5, align 8, !tbaa !8
  %116 = getelementptr inbounds nuw %struct.pmix_output_stream_t, ptr %115, i32 0, i32 5
  %117 = load ptr, ptr %116, align 8, !tbaa !21
  %118 = icmp ne ptr null, %117
  br i1 %118, label %119, label %137

119:                                              ; preds = %114
  %120 = load ptr, ptr %5, align 8, !tbaa !8
  %121 = getelementptr inbounds nuw %struct.pmix_output_stream_t, ptr %120, i32 0, i32 5
  %122 = load ptr, ptr %121, align 8, !tbaa !21
  %123 = call noalias ptr @strdup(ptr noundef %122) #12
  %124 = load i32, ptr %6, align 4, !tbaa !33
  %125 = sext i32 %124 to i64
  %126 = getelementptr inbounds [64 x %struct.pmix_output_desc_t], ptr @pmix_output_info, i64 0, i64 %125
  %127 = getelementptr inbounds nuw %struct.pmix_output_desc_t, ptr %126, i32 0, i32 8
  store ptr %123, ptr %127, align 8, !tbaa !69
  %128 = load ptr, ptr %5, align 8, !tbaa !8
  %129 = getelementptr inbounds nuw %struct.pmix_output_stream_t, ptr %128, i32 0, i32 5
  %130 = load ptr, ptr %129, align 8, !tbaa !21
  %131 = call i64 @strlen(ptr noundef %130) #13
  %132 = trunc i64 %131 to i32
  %133 = load i32, ptr %6, align 4, !tbaa !33
  %134 = sext i32 %133 to i64
  %135 = getelementptr inbounds [64 x %struct.pmix_output_desc_t], ptr @pmix_output_info, i64 0, i64 %134
  %136 = getelementptr inbounds nuw %struct.pmix_output_desc_t, ptr %135, i32 0, i32 9
  store i32 %132, ptr %136, align 8, !tbaa !70
  br label %146

137:                                              ; preds = %114
  %138 = load i32, ptr %6, align 4, !tbaa !33
  %139 = sext i32 %138 to i64
  %140 = getelementptr inbounds [64 x %struct.pmix_output_desc_t], ptr @pmix_output_info, i64 0, i64 %139
  %141 = getelementptr inbounds nuw %struct.pmix_output_desc_t, ptr %140, i32 0, i32 8
  store ptr null, ptr %141, align 8, !tbaa !69
  %142 = load i32, ptr %6, align 4, !tbaa !33
  %143 = sext i32 %142 to i64
  %144 = getelementptr inbounds [64 x %struct.pmix_output_desc_t], ptr @pmix_output_info, i64 0, i64 %143
  %145 = getelementptr inbounds nuw %struct.pmix_output_desc_t, ptr %144, i32 0, i32 9
  store i32 0, ptr %145, align 8, !tbaa !70
  br label %146

146:                                              ; preds = %137, %119
  %147 = load i8, ptr @pmix_output_redirected_to_syslog, align 1, !tbaa !29, !range !30, !noundef !31
  %148 = trunc i8 %147 to i1
  br i1 %148, label %149, label %166

149:                                              ; preds = %146
  %150 = load i32, ptr %6, align 4, !tbaa !33
  %151 = sext i32 %150 to i64
  %152 = getelementptr inbounds [64 x %struct.pmix_output_desc_t], ptr @pmix_output_info, i64 0, i64 %151
  %153 = getelementptr inbounds nuw %struct.pmix_output_desc_t, ptr %152, i32 0, i32 10
  store i8 0, ptr %153, align 4, !tbaa !71
  %154 = load i32, ptr %6, align 4, !tbaa !33
  %155 = sext i32 %154 to i64
  %156 = getelementptr inbounds [64 x %struct.pmix_output_desc_t], ptr @pmix_output_info, i64 0, i64 %155
  %157 = getelementptr inbounds nuw %struct.pmix_output_desc_t, ptr %156, i32 0, i32 11
  store i8 0, ptr %157, align 1, !tbaa !72
  %158 = load i32, ptr %6, align 4, !tbaa !33
  %159 = sext i32 %158 to i64
  %160 = getelementptr inbounds [64 x %struct.pmix_output_desc_t], ptr @pmix_output_info, i64 0, i64 %159
  %161 = getelementptr inbounds nuw %struct.pmix_output_desc_t, ptr %160, i32 0, i32 12
  store i8 0, ptr %161, align 2, !tbaa !44
  %162 = load i32, ptr %6, align 4, !tbaa !33
  %163 = sext i32 %162 to i64
  %164 = getelementptr inbounds [64 x %struct.pmix_output_desc_t], ptr @pmix_output_info, i64 0, i64 %163
  %165 = getelementptr inbounds nuw %struct.pmix_output_desc_t, ptr %164, i32 0, i32 15
  store i32 -1, ptr %165, align 8, !tbaa !47
  br label %258

166:                                              ; preds = %146
  %167 = load ptr, ptr %8, align 8, !tbaa !32
  %168 = icmp ne ptr null, %167
  br i1 %168, label %169, label %185

169:                                              ; preds = %166
  %170 = load i8, ptr %7, align 1, !tbaa !29, !range !30, !noundef !31
  %171 = trunc i8 %170 to i1
  br i1 %171, label %172, label %185

172:                                              ; preds = %169
  %173 = load i32, ptr %6, align 4, !tbaa !33
  %174 = sext i32 %173 to i64
  %175 = getelementptr inbounds [64 x %struct.pmix_output_desc_t], ptr @pmix_output_info, i64 0, i64 %174
  %176 = getelementptr inbounds nuw %struct.pmix_output_desc_t, ptr %175, i32 0, i32 10
  store i8 0, ptr %176, align 4, !tbaa !71
  %177 = load i32, ptr %6, align 4, !tbaa !33
  %178 = sext i32 %177 to i64
  %179 = getelementptr inbounds [64 x %struct.pmix_output_desc_t], ptr @pmix_output_info, i64 0, i64 %178
  %180 = getelementptr inbounds nuw %struct.pmix_output_desc_t, ptr %179, i32 0, i32 11
  store i8 0, ptr %180, align 1, !tbaa !72
  %181 = load i32, ptr %6, align 4, !tbaa !33
  %182 = sext i32 %181 to i64
  %183 = getelementptr inbounds [64 x %struct.pmix_output_desc_t], ptr @pmix_output_info, i64 0, i64 %182
  %184 = getelementptr inbounds nuw %struct.pmix_output_desc_t, ptr %183, i32 0, i32 12
  store i8 1, ptr %184, align 2, !tbaa !44
  br label %217

185:                                              ; preds = %169, %166
  %186 = load ptr, ptr %5, align 8, !tbaa !8
  %187 = getelementptr inbounds nuw %struct.pmix_output_stream_t, ptr %186, i32 0, i32 8
  %188 = load i8, ptr %187, align 2, !tbaa !24, !range !30, !noundef !31
  %189 = trunc i8 %188 to i1
  %190 = load i32, ptr %6, align 4, !tbaa !33
  %191 = sext i32 %190 to i64
  %192 = getelementptr inbounds [64 x %struct.pmix_output_desc_t], ptr @pmix_output_info, i64 0, i64 %191
  %193 = getelementptr inbounds nuw %struct.pmix_output_desc_t, ptr %192, i32 0, i32 10
  %194 = zext i1 %189 to i8
  store i8 %194, ptr %193, align 4, !tbaa !71
  %195 = load ptr, ptr %5, align 8, !tbaa !8
  %196 = getelementptr inbounds nuw %struct.pmix_output_stream_t, ptr %195, i32 0, i32 9
  %197 = load i8, ptr %196, align 1, !tbaa !25, !range !30, !noundef !31
  %198 = trunc i8 %197 to i1
  %199 = load i32, ptr %6, align 4, !tbaa !33
  %200 = sext i32 %199 to i64
  %201 = getelementptr inbounds [64 x %struct.pmix_output_desc_t], ptr @pmix_output_info, i64 0, i64 %200
  %202 = getelementptr inbounds nuw %struct.pmix_output_desc_t, ptr %201, i32 0, i32 11
  %203 = zext i1 %198 to i8
  store i8 %203, ptr %202, align 1, !tbaa !72
  %204 = load i32, ptr %6, align 4, !tbaa !33
  %205 = sext i32 %204 to i64
  %206 = getelementptr inbounds [64 x %struct.pmix_output_desc_t], ptr @pmix_output_info, i64 0, i64 %205
  %207 = getelementptr inbounds nuw %struct.pmix_output_desc_t, ptr %206, i32 0, i32 15
  store i32 -1, ptr %207, align 8, !tbaa !47
  %208 = load ptr, ptr %5, align 8, !tbaa !8
  %209 = getelementptr inbounds nuw %struct.pmix_output_stream_t, ptr %208, i32 0, i32 10
  %210 = load i8, ptr %209, align 4, !tbaa !26, !range !30, !noundef !31
  %211 = trunc i8 %210 to i1
  %212 = load i32, ptr %6, align 4, !tbaa !33
  %213 = sext i32 %212 to i64
  %214 = getelementptr inbounds [64 x %struct.pmix_output_desc_t], ptr @pmix_output_info, i64 0, i64 %213
  %215 = getelementptr inbounds nuw %struct.pmix_output_desc_t, ptr %214, i32 0, i32 12
  %216 = zext i1 %211 to i8
  store i8 %216, ptr %215, align 2, !tbaa !44
  br label %217

217:                                              ; preds = %185, %172
  %218 = load ptr, ptr %9, align 8, !tbaa !32
  %219 = icmp ne ptr null, %218
  br i1 %219, label %220, label %227

220:                                              ; preds = %217
  %221 = load ptr, ptr %9, align 8, !tbaa !32
  %222 = call noalias ptr @strdup(ptr noundef %221) #12
  %223 = load i32, ptr %6, align 4, !tbaa !33
  %224 = sext i32 %223 to i64
  %225 = getelementptr inbounds [64 x %struct.pmix_output_desc_t], ptr @pmix_output_info, i64 0, i64 %224
  %226 = getelementptr inbounds nuw %struct.pmix_output_desc_t, ptr %225, i32 0, i32 14
  store ptr %222, ptr %226, align 8, !tbaa !45
  br label %244

227:                                              ; preds = %217
  %228 = load ptr, ptr %5, align 8, !tbaa !8
  %229 = getelementptr inbounds nuw %struct.pmix_output_stream_t, ptr %228, i32 0, i32 12
  %230 = load ptr, ptr %229, align 8, !tbaa !28
  %231 = icmp eq ptr null, %230
  br i1 %231, label %232, label %233

232:                                              ; preds = %227
  br label %238

233:                                              ; preds = %227
  %234 = load ptr, ptr %5, align 8, !tbaa !8
  %235 = getelementptr inbounds nuw %struct.pmix_output_stream_t, ptr %234, i32 0, i32 12
  %236 = load ptr, ptr %235, align 8, !tbaa !28
  %237 = call noalias ptr @strdup(ptr noundef %236) #12
  br label %238

238:                                              ; preds = %233, %232
  %239 = phi ptr [ null, %232 ], [ %237, %233 ]
  %240 = load i32, ptr %6, align 4, !tbaa !33
  %241 = sext i32 %240 to i64
  %242 = getelementptr inbounds [64 x %struct.pmix_output_desc_t], ptr @pmix_output_info, i64 0, i64 %241
  %243 = getelementptr inbounds nuw %struct.pmix_output_desc_t, ptr %242, i32 0, i32 14
  store ptr %239, ptr %243, align 8, !tbaa !45
  br label %244

244:                                              ; preds = %238, %220
  %245 = load ptr, ptr %5, align 8, !tbaa !8
  %246 = getelementptr inbounds nuw %struct.pmix_output_stream_t, ptr %245, i32 0, i32 11
  %247 = load i8, ptr %246, align 1, !tbaa !27, !range !30, !noundef !31
  %248 = trunc i8 %247 to i1
  %249 = load i32, ptr %6, align 4, !tbaa !33
  %250 = sext i32 %249 to i64
  %251 = getelementptr inbounds [64 x %struct.pmix_output_desc_t], ptr @pmix_output_info, i64 0, i64 %250
  %252 = getelementptr inbounds nuw %struct.pmix_output_desc_t, ptr %251, i32 0, i32 13
  %253 = zext i1 %248 to i8
  store i8 %253, ptr %252, align 1, !tbaa !46
  %254 = load i32, ptr %6, align 4, !tbaa !33
  %255 = sext i32 %254 to i64
  %256 = getelementptr inbounds [64 x %struct.pmix_output_desc_t], ptr @pmix_output_info, i64 0, i64 %255
  %257 = getelementptr inbounds nuw %struct.pmix_output_desc_t, ptr %256, i32 0, i32 16
  store i32 0, ptr %257, align 4, !tbaa !48
  br label %258

258:                                              ; preds = %244, %149
  %259 = load i32, ptr %6, align 4, !tbaa !33
  store i32 %259, ptr %3, align 4
  store i32 1, ptr %10, align 4
  br label %260

260:                                              ; preds = %258, %47
  call void @llvm.lifetime.end.p0(i64 8, ptr %9) #12
  call void @llvm.lifetime.end.p0(i64 8, ptr %8) #12
  call void @llvm.lifetime.end.p0(i64 1, ptr %7) #12
  call void @llvm.lifetime.end.p0(i64 4, ptr %6) #12
  %261 = load i32, ptr %3, align 4
  ret i32 %261
}